target datalayout = "e-m:e-p270:32:32-p271:32:32-p272:64:64-i64:64-i128:128-f80:128-n8:16:32:64-S128"
target triple = "x86_64-pc-linux-gnu"

%struct.GetBitContext = type { ptr, ptr, i32, i32, i32 }

; Function Attrs: inlinehint nounwind uwtable
define internal i32 @get_bits1(ptr noundef %0) #2 {
  %2 = alloca ptr, align 8
  %3 = alloca i32, align 4
  %4 = alloca i8, align 1
  store ptr %0, ptr %2, align 8, !tbaa !77
  call void @llvm.lifetime.start.p0(i64 4, ptr %3) #10
  %5 = load ptr, ptr %2, align 8, !tbaa !77
  %6 = getelementptr inbounds nuw %struct.GetBitContext, ptr %5, i32 0, i32 2
  %7 = load i32, ptr %6, align 8, !tbaa !78
  store i32 %7, ptr %3, align 4, !tbaa !58
  call void @llvm.lifetime.start.p0(i64 1, ptr %4) #10
  %8 = load ptr, ptr %2, align 8, !tbaa !77
  %9 = getelementptr inbounds nuw %struct.GetBitContext, ptr %8, i32 0, i32 0
  %10 = load ptr, ptr %9, align 8, !tbaa !79
  %11 = load i32, ptr %3, align 4, !tbaa !58
  %12 = lshr i32 %11, 3
  %13 = zext i32 %12 to i64
  %14 = getelementptr inbounds nuw i8, ptr %10, i64 %13
  %15 = load i8, ptr %14, align 1, !tbaa !80
  store i8 %15, ptr %4, align 1, !tbaa !80
  %16 = load i32, ptr %3, align 4, !tbaa !58
  %17 = and i32 %16, 7
  %18 = load i8, ptr %4, align 1, !tbaa !80
  %19 = zext i8 %18 to i32
  %20 = shl i32 %19, %17
  %21 = trunc i32 %20 to i8
  store i8 %21, ptr %4, align 1, !tbaa !80
  %22 = load i8, ptr %4, align 1, !tbaa !80
  %23 = zext i8 %22 to i32
  %24 = ashr i32 %23, 7
  %25 = trunc i32 %24 to i8
  store i8 %25, ptr %4, align 1, !tbaa !80
  %26 = load ptr, ptr %2, align 8, !tbaa !77
  %27 = getelementptr inbounds nuw %struct.GetBitContext, ptr %26, i32 0, i32 2
  %28 = load i32, ptr %27, align 8, !tbaa !78
  %29 = load ptr, ptr %2, align 8, !tbaa !77
  %30 = getelementptr inbounds nuw %struct.GetBitContext, ptr %29, i32 0, i32 4
  %31 = load i32, ptr %30, align 8, !tbaa !81
  %32 = icmp slt i32 %28, %31
  br i1 %32, label %33, label %36

33:                                               ; preds = %1
  %34 = load i32, ptr %3, align 4, !tbaa !58
  %35 = add i32 %34, 1
  store i32 %35, ptr %3, align 4, !tbaa !58
  br label %36

36:                                               ; preds = %33, %1
  %37 = load i32, ptr %3, align 4, !tbaa !58
  %38 = load ptr, ptr %2, align 8, !tbaa !77
  %39 = getelementptr inbounds nuw %struct.GetBitContext, ptr %38, i32 0, i32 2
  store i32 %37, ptr %39, align 8, !tbaa !78
  %40 = load i8, ptr %4, align 1, !tbaa !80
  %41 = zext i8 %40 to i32
  call void @llvm.lifetime.end.p0(i64 1, ptr %4) #10
  call void @llvm.lifetime.end.p0(i64 4, ptr %3) #10
  ret i32 %41
}

; Function Attrs: inlinehint nounwind uwtable
define internal i32 @decode012(ptr noundef %0) #2 {
  %2 = alloca i32, align 4
  %3 = alloca ptr, align 8
  %4 = alloca i32, align 4
  %5 = alloca i32, align 4
  store ptr %0, ptr %3, align 8, !tbaa !77
  call void @llvm.lifetime.start.p0(i64 4, ptr %4) #10
  %6 = load ptr, ptr %3, align 8, !tbaa !77
  %7 = call i32 @get_bits1(ptr noundef %6)
  store i32 %7, ptr %4, align 4, !tbaa !58
  %8 = load i32, ptr %4, align 4, !tbaa !58
  %9 = icmp eq i32 %8, 0
  br i1 %9, label %10, label %11

10:                                               ; preds = %1
  store i32 0, ptr %2, align 4
  store i32 1, ptr %5, align 4
  br label %15

11:                                               ; preds = %1
  %12 = load ptr, ptr %3, align 8, !tbaa !77
  %13 = call i32 @get_bits1(ptr noundef %12)
  %14 = add i32 %13, 1
  store i32 %14, ptr %2, align 4
  store i32 1, ptr %5, align 4
  br label %15

15:                                               ; preds = %11, %10
  call void @llvm.lifetime.end.p0(i64 4, ptr %4) #10
  %16 = load i32, ptr %2, align 4
  ret i32 %16
}